target datalayout = "e-m:e-p270:32:32-p271:32:32-p272:64:64-i64:64-i128:128-f80:128-n8:16:32:64-S128"
target triple = "x86_64-pc-linux-gnu"

%struct.Aig_Obj_t_ = type { %union.anon, ptr, ptr, i64, i32, i32, %union.anon.0 }
%union.anon = type { ptr }
%union.anon.0 = type { ptr }
%struct.Aig_Man_t_ = type { ptr, ptr, ptr, ptr, ptr, ptr, ptr, %struct.Aig_Obj_t_, i32, i32, i32, i32, i32, i32, [7 x i32], i32, ptr, i32, ptr, i32, ptr, i32, i32, i32, ptr, i32, i32, i32, i32, i32, ptr, ptr, i32, ptr, ptr, i32, ptr, ptr, i32, i32, i32, ptr, ptr, ptr, ptr, ptr, ptr, ptr, ptr, ptr, ptr, ptr, ptr, ptr, ptr, i32, ptr, ptr, ptr, ptr, i32, i64, i64, i64, ptr, ptr }
%struct.Vec_Ptr_t_ = type { i32, i32, ptr }
%struct.Vec_Int_t_ = type { i32, i32, ptr }

; Function Attrs: inlinehint nounwind uwtable
define internal i32 @Vec_IntEntry(ptr noundef %0, i32 noundef %1) #3 {
  %3 = alloca ptr, align 8
  %4 = alloca i32, align 4
  store ptr %0, ptr %3, align 8, !tbaa !10
  store i32 %1, ptr %4, align 4, !tbaa !13
  %5 = load ptr, ptr %3, align 8, !tbaa !10
  %6 = getelementptr inbounds nuw %struct.Vec_Int_t_, ptr %5, i32 0, i32 2
  %7 = load ptr, ptr %6, align 8, !tbaa !63
  %8 = load i32, ptr %4, align 4, !tbaa !13
  %9 = sext i32 %8 to i64
  %10 = getelementptr inbounds i32, ptr %7, i64 %9
  %11 = load i32, ptr %10, align 4, !tbaa !13
  ret i32 %11
}

; Function Attrs: inlinehint nounwind uwtable
define internal i32 @Aig_ObjId(ptr noundef %0) #3 {
  %2 = alloca ptr, align 8
  store ptr %0, ptr %2, align 8, !tbaa !27
  %3 = load ptr, ptr %2, align 8, !tbaa !27
  %4 = getelementptr inbounds nuw %struct.Aig_Obj_t_, ptr %3, i32 0, i32 5
  %5 = load i32, ptr %4, align 4, !tbaa !64
  ret i32 %5
}

; Function Attrs: inlinehint nounwind uwtable
define internal i32 @Saig_ManPiNum(ptr noundef %0) #3 {
  %2 = alloca ptr, align 8
  store ptr %0, ptr %2, align 8, !tbaa !8
  %3 = load ptr, ptr %2, align 8, !tbaa !8
  %4 = getelementptr inbounds nuw %struct.Aig_Man_t_, ptr %3, i32 0, i32 9
  %5 = load i32, ptr %4, align 4, !tbaa !47
  ret i32 %5
}

; Function Attrs: inlinehint nounwind uwtable
define internal ptr @Vec_PtrEntry(ptr noundef %0, i32 noundef %1) #3 {
  %3 = alloca ptr, align 8
  %4 = alloca i32, align 4
  store ptr %0, ptr %3, align 8, !tbaa !31
  store i32 %1, ptr %4, align 4, !tbaa !13
  %5 = load ptr, ptr %3, align 8, !tbaa !31
  %6 = getelementptr inbounds nuw %struct.Vec_Ptr_t_, ptr %5, i32 0, i32 2
  %7 = load ptr, ptr %6, align 8, !tbaa !42
  %8 = load i32, ptr %4, align 4, !tbaa !13
  %9 = sext i32 %8 to i64
  %10 = getelementptr inbounds ptr, ptr %7, i64 %9
  %11 = load ptr, ptr %10, align 8, !tbaa !43
  ret ptr %11
}

; Function Attrs: inlinehint nounwind uwtable
define internal i32 @Saig_ManPoNum(ptr noundef %0) #3 {
  %2 = alloca ptr, align 8
  store ptr %0, ptr %2, align 8, !tbaa !8
  %3 = load ptr, ptr %2, align 8, !tbaa !8
  %4 = getelementptr inbounds nuw %struct.Aig_Man_t_, ptr %3, i32 0, i32 10
  %5 = load i32, ptr %4, align 8, !tbaa !44
  ret i32 %5
}

; Function Attrs: inlinehint nounwind uwtable
define internal void @Abc_InfoSetBit(ptr noundef %0, i32 noundef %1) #3 {
  %3 = alloca ptr, align 8
  %4 = alloca i32, align 4
  store ptr %0, ptr %3, align 8, !tbaa !65
  store i32 %1, ptr %4, align 4, !tbaa !13
  %5 = load i32, ptr %4, align 4, !tbaa !13
  %6 = and i32 %5, 31
  %7 = shl i32 1, %6
  %8 = load ptr, ptr %3, align 8, !tbaa !65
  %9 = load i32, ptr %4, align 4, !tbaa !13
  %10 = ashr i32 %9, 5
  %11 = sext i32 %10 to i64
  %12 = getelementptr inbounds i32, ptr %8, i64 %11
  %13 = load i32, ptr %12, align 4, !tbaa !13
  %14 = or i32 %13, %7
  store i32 %14, ptr %12, align 4, !tbaa !13
  ret void
}

; Function Attrs: inlinehint nounwind uwtable
define internal i32 @Llb_ObjBddVar(ptr noundef %0, ptr noundef %1) #3 {
  %3 = alloca ptr, align 8
  %4 = alloca ptr, align 8
  store ptr %0, ptr %3, align 8, !tbaa !10
  store ptr %1, ptr %4, align 8, !tbaa !27
  %5 = load ptr, ptr %3, align 8, !tbaa !10
  %6 = load ptr, ptr %4, align 8, !tbaa !27
  %7 = call i32 @Aig_ObjId(ptr noundef %6)
  %8 = call i32 @Vec_IntEntry(ptr noundef %5, i32 noundef %7)
  ret i32 %8
}

; Function Attrs: inlinehint nounwind uwtable
define internal ptr @Saig_ManLo(ptr noundef %0, i32 noundef %1) #3 {
  %3 = alloca ptr, align 8
  %4 = alloca i32, align 4
  store ptr %0, ptr %3, align 8, !tbaa !8
  store i32 %1, ptr %4, align 4, !tbaa !13
  %5 = load ptr, ptr %3, align 8, !tbaa !8
  %6 = getelementptr inbounds nuw %struct.Aig_Man_t_, ptr %5, i32 0, i32 2
  %7 = load ptr, ptr %6, align 8, !tbaa !15
  %8 = load ptr, ptr %3, align 8, !tbaa !8
  %9 = call i32 @Saig_ManPiNum(ptr noundef %8)
  %10 = load i32, ptr %4, align 4, !tbaa !13
  %11 = add nsw i32 %9, %10
  %12 = call ptr @Vec_PtrEntry(ptr noundef %7, i32 noundef %11)
  ret ptr %12
}

; Function Attrs: inlinehint nounwind uwtable
define internal ptr @Saig_ManLi(ptr noundef %0, i32 noundef %1) #3 {
  %3 = alloca ptr, align 8
  %4 = alloca i32, align 4
  store ptr %0, ptr %3, align 8, !tbaa !8
  store i32 %1, ptr %4, align 4, !tbaa !13
  %5 = load ptr, ptr %3, align 8, !tbaa !8
  %6 = getelementptr inbounds nuw %struct.Aig_Man_t_, ptr %5, i32 0, i32 3
  %7 = load ptr, ptr %6, align 8, !tbaa !30
  %8 = load ptr, ptr %3, align 8, !tbaa !8
  %9 = call i32 @Saig_ManPoNum(ptr noundef %8)
  %10 = load i32, ptr %4, align 4, !tbaa !13
  %11 = add nsw i32 %9, %10
  %12 = call ptr @Vec_PtrEntry(ptr noundef %7, i32 noundef %11)
  ret ptr %12
}

; Function Attrs: inlinehint nounwind uwtable
define internal i32 @Saig_ManRegNum(ptr noundef %0) #3 {
  %2 = alloca ptr, align 8
  store ptr %0, ptr %2, align 8, !tbaa !8
  %3 = load ptr, ptr %2, align 8, !tbaa !8
  %4 = getelementptr inbounds nuw %struct.Aig_Man_t_, ptr %3, i32 0, i32 8
  %5 = load i32, ptr %4, align 8, !tbaa !57
  ret i32 %5
}

; Function Attrs: nounwind uwtable
define void @Llb_Nonlin4RecordState(ptr noundef %0, ptr noundef %1, ptr noundef %2, ptr noundef %3, i32 noundef %4) #0 {
  %6 = alloca ptr, align 8
  %7 = alloca ptr, align 8
  %8 = alloca ptr, align 8
  %9 = alloca ptr, align 8
  %10 = alloca i32, align 4
  %11 = alloca ptr, align 8
  %12 = alloca ptr, align 8
  %13 = alloca i32, align 4
  store ptr %0, ptr %6, align 8, !tbaa !8
  store ptr %1, ptr %7, align 8, !tbaa !10
  store ptr %2, ptr %8, align 8, !tbaa !65
  store ptr %3, ptr %9, align 8, !tbaa !95
  store i32 %4, ptr %10, align 4, !tbaa !13
  call void @llvm.lifetime.start.p0(i64 8, ptr %11) #11
  call void @llvm.lifetime.start.p0(i64 8, ptr %12) #11
  call void @llvm.lifetime.start.p0(i64 4, ptr %13) #11
  store i32 0, ptr %13, align 4, !tbaa !13
  br label %14

14:                                               ; preds = %50, %5
  %15 = load i32, ptr %13, align 4, !tbaa !13
  %16 = load ptr, ptr %6, align 8, !tbaa !8
  %17 = call i32 @Saig_ManRegNum(ptr noundef %16)
  %18 = icmp slt i32 %15, %17
  br i1 %18, label %19, label %27

19:                                               ; preds = %14
  %20 = load ptr, ptr %6, align 8, !tbaa !8
  %21 = load i32, ptr %13, align 4, !tbaa !13
  %22 = call ptr @Saig_ManLi(ptr noundef %20, i32 noundef %21)
  store ptr %22, ptr %12, align 8, !tbaa !27
  br i1 true, label %23, label %27

23:                                               ; preds = %19
  %24 = load ptr, ptr %6, align 8, !tbaa !8
  %25 = load i32, ptr %13, align 4, !tbaa !13
  %26 = call ptr @Saig_ManLo(ptr noundef %24, i32 noundef %25)
  store ptr %26, ptr %11, align 8, !tbaa !27
  br label %27

27:                                               ; preds = %23, %19, %14
  %28 = phi i1 [ false, %19 ], [ false, %14 ], [ true, %23 ]
  br i1 %28, label %29, label %53

29:                                               ; preds = %27
  %30 = load ptr, ptr %9, align 8, !tbaa !95
  %31 = load ptr, ptr %7, align 8, !tbaa !10
  %32 = load i32, ptr %10, align 4, !tbaa !13
  %33 = icmp ne i32 %32, 0
  br i1 %33, label %34, label %36

34:                                               ; preds = %29
  %35 = load ptr, ptr %12, align 8, !tbaa !27
  br label %38

36:                                               ; preds = %29
  %37 = load ptr, ptr %11, align 8, !tbaa !27
  br label %38

38:                                               ; preds = %36, %34
  %39 = phi ptr [ %35, %34 ], [ %37, %36 ]
  %40 = call i32 @Llb_ObjBddVar(ptr noundef %31, ptr noundef %39)
  %41 = sext i32 %40 to i64
  %42 = getelementptr inbounds i8, ptr %30, i64 %41
  %43 = load i8, ptr %42, align 1, !tbaa !12
  %44 = sext i8 %43 to i32
  %45 = icmp eq i32 %44, 1
  br i1 %45, label %46, label %49

46:                                               ; preds = %38
  %47 = load ptr, ptr %8, align 8, !tbaa !65
  %48 = load i32, ptr %13, align 4, !tbaa !13
  call void @Abc_InfoSetBit(ptr noundef %47, i32 noundef %48)
  br label %49

49:                                               ; preds = %46, %38
  br label %50

50:                                               ; preds = %49
  %51 = load i32, ptr %13, align 4, !tbaa !13
  %52 = add nsw i32 %51, 1
  store i32 %52, ptr %13, align 4, !tbaa !13
  br label %14, !llvm.loop !97

53:                                               ; preds = %27
  call void @llvm.lifetime.end.p0(i64 4, ptr %13) #11
  call void @llvm.lifetime.end.p0(i64 8, ptr %12) #11
  call void @llvm.lifetime.end.p0(i64 8, ptr %11) #11
  ret void
}