; Function Attrs: nofree norecurse nosync nounwind memory(read, argmem: readwrite, inaccessiblemem: none) uwtable
define void @Llb_Nonlin4RecordState(ptr noundef readonly captures(none) %0, ptr noundef readonly captures(none) %1, ptr noundef captures(none) %2, ptr noundef readonly captures(none) %3, i32 noundef %4) local_unnamed_addr #7 {
  %6 = getelementptr i8, ptr %0, i64 104
  %.val1419 = load i32, ptr %6, align 8, !tbaa !45
  %7 = icmp sgt i32 %.val1419, 0
  br i1 %7, label %.lr.ph, label %.critedge

.lr.ph:                                           ; preds = %5
  %8 = getelementptr i8, ptr %0, i64 24
  %.val15 = load ptr, ptr %8, align 8, !tbaa !33
  %9 = getelementptr i8, ptr %0, i64 112
  %10 = getelementptr i8, ptr %.val15, i64 8
  %.val15.val = load ptr, ptr %10, align 8, !tbaa !25
  %11 = getelementptr i8, ptr %0, i64 16
  %.val17 = load ptr, ptr %11, align 8, !tbaa !22
  %12 = getelementptr i8, ptr %0, i64 108
  %13 = getelementptr i8, ptr %.val17, i64 8
  %.val17.val = load ptr, ptr %13, align 8, !tbaa !25
  %.not = icmp eq i32 %4, 0
  %14 = getelementptr i8, ptr %1, i64 8
  %.val = load ptr, ptr %14, align 8, !tbaa !27
  br i1 %.not, label %.lr.ph.split.us, label %.lr.ph.split

.lr.ph.split.us:                                  ; preds = %.lr.ph, %35
  %.val14.us24 = phi i32 [ %.val14.us, %35 ], [ %.val1419, %.lr.ph ]
  %.020.us = phi i32 [ %36, %35 ], [ 0, %.lr.ph ]
  %.val18.us = load i32, ptr %12, align 4, !tbaa !41
  %15 = add nsw i32 %.val18.us, %.020.us
  %16 = sext i32 %15 to i64
  %17 = getelementptr inbounds ptr, ptr %.val17.val, i64 %16
  %18 = load ptr, ptr %17, align 8, !tbaa !26
  %19 = getelementptr i8, ptr %18, i64 36
  %.val13.us = load i32, ptr %19, align 4, !tbaa !29
  %20 = sext i32 %.val13.us to i64
  %21 = getelementptr inbounds i32, ptr %.val, i64 %20
  %22 = load i32, ptr %21, align 4, !tbaa !30
  %23 = sext i32 %22 to i64
  %24 = getelementptr inbounds i8, ptr %3, i64 %23
  %25 = load i8, ptr %24, align 1, !tbaa !21
  %26 = icmp eq i8 %25, 1
  br i1 %26, label %27, label %35

27:                                               ; preds = %.lr.ph.split.us
  %28 = and i32 %.020.us, 31
  %29 = shl nuw i32 1, %28
  %30 = lshr i32 %.020.us, 5
  %31 = zext nneg i32 %30 to i64
  %32 = getelementptr inbounds nuw i32, ptr %2, i64 %31
  %33 = load i32, ptr %32, align 4, !tbaa !30
  %34 = or i32 %33, %29
  store i32 %34, ptr %32, align 4, !tbaa !30
  %.val14.us.pre = load i32, ptr %6, align 8, !tbaa !45
  br label %35

35:                                               ; preds = %.lr.ph.split.us, %27
  %.val14.us = phi i32 [ %.val14.us24, %.lr.ph.split.us ], [ %.val14.us.pre, %27 ]
  %36 = add nuw nsw i32 %.020.us, 1
  %37 = icmp slt i32 %36, %.val14.us
  br i1 %37, label %.lr.ph.split.us, label %.critedge, !llvm.loop !85

.lr.ph.split:                                     ; preds = %.lr.ph, %58
  %.val1422 = phi i32 [ %.val14, %58 ], [ %.val1419, %.lr.ph ]
  %.020 = phi i32 [ %59, %58 ], [ 0, %.lr.ph ]
  %.val16 = load i32, ptr %9, align 8, !tbaa !34
  %38 = add nsw i32 %.val16, %.020
  %39 = sext i32 %38 to i64
  %40 = getelementptr inbounds ptr, ptr %.val15.val, i64 %39
  %41 = load ptr, ptr %40, align 8, !tbaa !26
  %42 = getelementptr i8, ptr %41, i64 36
  %.val13 = load i32, ptr %42, align 4, !tbaa !29
  %43 = sext i32 %.val13 to i64
  %44 = getelementptr inbounds i32, ptr %.val, i64 %43
  %45 = load i32, ptr %44, align 4, !tbaa !30
  %46 = sext i32 %45 to i64
  %47 = getelementptr inbounds i8, ptr %3, i64 %46
  %48 = load i8, ptr %47, align 1, !tbaa !21
  %49 = icmp eq i8 %48, 1
  br i1 %49, label %50, label %58

50:                                               ; preds = %.lr.ph.split
  %51 = and i32 %.020, 31
  %52 = shl nuw i32 1, %51
  %53 = lshr i32 %.020, 5
  %54 = zext nneg i32 %53 to i64
  %55 = getelementptr inbounds nuw i32, ptr %2, i64 %54
  %56 = load i32, ptr %55, align 4, !tbaa !30
  %57 = or i32 %56, %52
  store i32 %57, ptr %55, align 4, !tbaa !30
  %.val14.pre = load i32, ptr %6, align 8, !tbaa !45
  br label %58

58:                                               ; preds = %.lr.ph.split, %50
  %.val14 = phi i32 [ %.val1422, %.lr.ph.split ], [ %.val14.pre, %50 ]
  %59 = add nuw nsw i32 %.020, 1
  %60 = icmp slt i32 %59, %.val14
  br i1 %60, label %.lr.ph.split, label %.critedge, !llvm.loop !85

.critedge:                                        ; preds = %58, %35, %5
  ret void
}